target datalayout = "e-m:e-p270:32:32-p271:32:32-p272:64:64-i64:64-i128:128-f80:128-n8:16:32:64-S128"
target triple = "x86_64-pc-linux-gnu"

%struct.evp_pkey_st = type { i32, i32, ptr, ptr, ptr, %union.legacy_pkey_st, %union.legacy_pkey_st, %struct.CRYPTO_REF_COUNT, ptr, ptr, i32, i8, %struct.crypto_ex_data_st, ptr, ptr, i64, ptr, i64, %struct.anon }
%union.legacy_pkey_st = type { ptr }
%struct.CRYPTO_REF_COUNT = type { i32 }
%struct.crypto_ex_data_st = type { ptr, ptr }
%struct.anon = type { i32, i32, i32 }

@.str.5 = private unnamed_addr constant [13 x i8] c"point-format\00", align 1
@.str.6 = private unnamed_addr constant [13 x i8] c"uncompressed\00", align 1
@.str.7 = private unnamed_addr constant [11 x i8] c"compressed\00", align 1
@.str.8 = private unnamed_addr constant [7 x i8] c"hybrid\00", align 1

; Function Attrs: nounwind uwtable
define i32 @EVP_PKEY_get_ec_point_conv_form(ptr noundef %0) #0 {
  %2 = alloca i32, align 4
  %3 = alloca ptr, align 8
  %4 = alloca [80 x i8], align 16
  %5 = alloca i64, align 8
  %6 = alloca i32, align 4
  %7 = alloca ptr, align 8
  store ptr %0, ptr %3, align 8, !tbaa !3
  call void @llvm.lifetime.start.p0(i64 80, ptr %4) #8
  call void @llvm.lifetime.start.p0(i64 8, ptr %5) #8
  %8 = load ptr, ptr %3, align 8, !tbaa !3
  %9 = icmp eq ptr %8, null
  br i1 %9, label %10, label %11

10:                                               ; preds = %1
  store i32 0, ptr %2, align 4
  store i32 1, ptr %6, align 4
  br label %53

11:                                               ; preds = %1
  %12 = load ptr, ptr %3, align 8, !tbaa !3
  %13 = getelementptr inbounds nuw %struct.evp_pkey_st, ptr %12, i32 0, i32 13
  %14 = load ptr, ptr %13, align 8, !tbaa !32
  %15 = icmp eq ptr %14, null
  br i1 %15, label %21, label %16

16:                                               ; preds = %11
  %17 = load ptr, ptr %3, align 8, !tbaa !3
  %18 = getelementptr inbounds nuw %struct.evp_pkey_st, ptr %17, i32 0, i32 14
  %19 = load ptr, ptr %18, align 8, !tbaa !33
  %20 = icmp eq ptr %19, null
  br i1 %20, label %21, label %31

21:                                               ; preds = %16, %11
  call void @llvm.lifetime.start.p0(i64 8, ptr %7) #8
  %22 = load ptr, ptr %3, align 8, !tbaa !3
  %23 = call ptr @EVP_PKEY_get0_EC_KEY(ptr noundef %22)
  store ptr %23, ptr %7, align 8, !tbaa !151
  %24 = load ptr, ptr %7, align 8, !tbaa !151
  %25 = icmp eq ptr %24, null
  br i1 %25, label %26, label %27

26:                                               ; preds = %21
  store i32 0, ptr %2, align 4
  store i32 1, ptr %6, align 4
  br label %30

27:                                               ; preds = %21
  %28 = load ptr, ptr %7, align 8, !tbaa !151
  %29 = call i32 @EC_KEY_get_conv_form(ptr noundef %28)
  store i32 %29, ptr %2, align 4
  store i32 1, ptr %6, align 4
  br label %30

30:                                               ; preds = %27, %26
  call void @llvm.lifetime.end.p0(i64 8, ptr %7) #8
  br label %53

31:                                               ; preds = %16
  %32 = load ptr, ptr %3, align 8, !tbaa !3
  %33 = getelementptr inbounds [80 x i8], ptr %4, i64 0, i64 0
  %34 = call i32 @EVP_PKEY_get_utf8_string_param(ptr noundef %32, ptr noundef @.str.5, ptr noundef %33, i64 noundef 80, ptr noundef %5)
  %35 = icmp ne i32 %34, 0
  br i1 %35, label %37, label %36

36:                                               ; preds = %31
  store i32 0, ptr %2, align 4
  store i32 1, ptr %6, align 4
  br label %53

37:                                               ; preds = %31
  %38 = getelementptr inbounds [80 x i8], ptr %4, i64 0, i64 0
  %39 = call i32 @strcmp(ptr noundef %38, ptr noundef @.str.6) #9
  %40 = icmp eq i32 %39, 0
  br i1 %40, label %41, label %42

41:                                               ; preds = %37
  store i32 4, ptr %2, align 4
  store i32 1, ptr %6, align 4
  br label %53

42:                                               ; preds = %37
  %43 = getelementptr inbounds [80 x i8], ptr %4, i64 0, i64 0
  %44 = call i32 @strcmp(ptr noundef %43, ptr noundef @.str.7) #9
  %45 = icmp eq i32 %44, 0
  br i1 %45, label %46, label %47

46:                                               ; preds = %42
  store i32 2, ptr %2, align 4
  store i32 1, ptr %6, align 4
  br label %53

47:                                               ; preds = %42
  %48 = getelementptr inbounds [80 x i8], ptr %4, i64 0, i64 0
  %49 = call i32 @strcmp(ptr noundef %48, ptr noundef @.str.8) #9
  %50 = icmp eq i32 %49, 0
  br i1 %50, label %51, label %52

51:                                               ; preds = %47
  store i32 6, ptr %2, align 4
  store i32 1, ptr %6, align 4
  br label %53

52:                                               ; preds = %47
  store i32 0, ptr %2, align 4
  store i32 1, ptr %6, align 4
  br label %53

53:                                               ; preds = %52, %51, %46, %41, %36, %30, %10
  call void @llvm.lifetime.end.p0(i64 8, ptr %5) #8
  call void @llvm.lifetime.end.p0(i64 80, ptr %4) #8
  %54 = load i32, ptr %2, align 4
  ret i32 %54
}