; Function Attrs: nounwind uwtable
define i32 @EVP_PKEY_get_ec_point_conv_form(ptr noundef %0) local_unnamed_addr #0 {
  %2 = alloca [80 x i8], align 16
  %3 = alloca i64, align 8
  call void @llvm.lifetime.start.p0(i64 80, ptr nonnull %2) #12
  call void @llvm.lifetime.start.p0(i64 8, ptr nonnull %3) #12
  %4 = icmp eq ptr %0, null
  br i1 %4, label %26, label %5

5:                                                ; preds = %1
  %6 = getelementptr inbounds nuw i8, ptr %0, i64 96
  %7 = load ptr, ptr %6, align 8, !tbaa !30
  %8 = icmp eq ptr %7, null
  br i1 %8, label %13, label %9

9:                                                ; preds = %5
  %10 = getelementptr inbounds nuw i8, ptr %0, i64 104
  %11 = load ptr, ptr %10, align 8, !tbaa !33
  %12 = icmp eq ptr %11, null
  br i1 %12, label %13, label %18

13:                                               ; preds = %9, %5
  %14 = tail call ptr @EVP_PKEY_get0_EC_KEY(ptr noundef nonnull %0) #12
  %15 = icmp eq ptr %14, null
  br i1 %15, label %26, label %16

16:                                               ; preds = %13
  %17 = tail call i32 @EC_KEY_get_conv_form(ptr noundef nonnull %14) #12
  br label %26

18:                                               ; preds = %9
  %19 = call i32 @EVP_PKEY_get_utf8_string_param(ptr noundef nonnull %0, ptr noundef nonnull @.str.5, ptr noundef nonnull %2, i64 noundef 80, ptr noundef nonnull %3)
  %.not = icmp eq i32 %19, 0
  br i1 %.not, label %26, label %20

20:                                               ; preds = %18
  %bcmp = call i32 @bcmp(ptr noundef nonnull dereferenceable(13) %2, ptr noundef nonnull dereferenceable(13) @.str.6, i64 13)
  %21 = icmp eq i32 %bcmp, 0
  br i1 %21, label %26, label %22

22:                                               ; preds = %20
  %bcmp9 = call i32 @bcmp(ptr noundef nonnull dereferenceable(11) %2, ptr noundef nonnull dereferenceable(11) @.str.7, i64 11)
  %23 = icmp eq i32 %bcmp9, 0
  br i1 %23, label %26, label %24

24:                                               ; preds = %22
  %bcmp10 = call i32 @bcmp(ptr noundef nonnull dereferenceable(7) %2, ptr noundef nonnull dereferenceable(7) @.str.8, i64 7)
  %25 = icmp eq i32 %bcmp10, 0
  %. = select i1 %25, i32 6, i32 0
  br label %26

26:                                               ; preds = %24, %22, %20, %18, %16, %13, %1
  %.0 = phi i32 [ 0, %1 ], [ %17, %16 ], [ 0, %13 ], [ 0, %18 ], [ 4, %20 ], [ 2, %22 ], [ %., %24 ]
  call void @llvm.lifetime.end.p0(i64 8, ptr nonnull %3) #12
  call void @llvm.lifetime.end.p0(i64 80, ptr nonnull %2) #12
  ret i32 %.0
}